target datalayout = "e-m:e-p270:32:32-p271:32:32-p272:64:64-i64:64-i128:128-f80:128-n8:16:32:64-S128"
target triple = "x86_64-pc-linux-gnu"

@.str.19 = private unnamed_addr constant [90 x i8] c"////////////////////////////////////////////////////////////////////////////////////////\0A\00", align 1
@.str.20 = private unnamed_addr constant [90 x i8] c"//                                                                                    //\0A\00", align 1
@.str.21 = private unnamed_addr constant [90 x i8] c"// DataAsCode exporter v1.0 - Raw data exported as an array of bytes                  //\0A\00", align 1
@.str.22 = private unnamed_addr constant [90 x i8] c"// more info and bugs-report:  github.com/raysan5/raylib                              //\0A\00", align 1
@.str.23 = private unnamed_addr constant [90 x i8] c"// feedback and support:       ray[at]raylib.com                                      //\0A\00", align 1
@.str.24 = private unnamed_addr constant [90 x i8] c"// Copyright (c) 2022-2025 Ramon Santamaria (@raysan5)                                //\0A\00", align 1
@.str.25 = private unnamed_addr constant [91 x i8] c"////////////////////////////////////////////////////////////////////////////////////////\0A\0A\00", align 1
@.str.26 = private unnamed_addr constant [30 x i8] c"#define %s_DATA_SIZE     %i\0A\0A\00", align 1
@.str.27 = private unnamed_addr constant [48 x i8] c"static unsigned char %s_DATA[%s_DATA_SIZE] = { \00", align 1
@.str.28 = private unnamed_addr constant [7 x i8] c"0x%x,\0A\00", align 1
@.str.29 = private unnamed_addr constant [7 x i8] c"0x%x, \00", align 1
@.str.30 = private unnamed_addr constant [9 x i8] c"0x%x };\0A\00", align 1
@.str.31 = private unnamed_addr constant [48 x i8] c"FILEIO: [%s] Data as code exported successfully\00", align 1
@.str.32 = private unnamed_addr constant [43 x i8] c"FILEIO: [%s] Failed to export data as code\00", align 1

; Function Attrs: nounwind uwtable
define zeroext i1 @ExportDataAsCode(ptr noundef %0, i32 noundef %1, ptr noundef %2) #0 {
  %4 = alloca ptr, align 8
  %5 = alloca i32, align 4
  %6 = alloca ptr, align 8
  %7 = alloca i8, align 1
  %8 = alloca ptr, align 8
  %9 = alloca i32, align 4
  %10 = alloca [256 x i8], align 16
  %11 = alloca i32, align 4
  %12 = alloca i32, align 4
  store ptr %0, ptr %4, align 8
  store i32 %1, ptr %5, align 4
  store ptr %2, ptr %6, align 8
  call void @llvm.lifetime.start.p0(i64 1, ptr %7) #13
  store i8 0, ptr %7, align 1
  call void @llvm.lifetime.start.p0(i64 8, ptr %8) #13
  %13 = load i32, ptr %5, align 4
  %14 = mul nsw i32 %13, 6
  %15 = add nsw i32 %14, 2000
  %16 = sext i32 %15 to i64
  %17 = call noalias ptr @calloc(i64 noundef %16, i64 noundef 1) #16
  store ptr %17, ptr %8, align 8
  call void @llvm.lifetime.start.p0(i64 4, ptr %9) #13
  store i32 0, ptr %9, align 4
  %18 = load ptr, ptr %8, align 8
  %19 = load i32, ptr %9, align 4
  %20 = sext i32 %19 to i64
  %21 = getelementptr inbounds i8, ptr %18, i64 %20
  %22 = call i32 (ptr, ptr, ...) @sprintf(ptr noundef %21, ptr noundef @.str.19) #13
  %23 = load i32, ptr %9, align 4
  %24 = add nsw i32 %23, %22
  store i32 %24, ptr %9, align 4
  %25 = load ptr, ptr %8, align 8
  %26 = load i32, ptr %9, align 4
  %27 = sext i32 %26 to i64
  %28 = getelementptr inbounds i8, ptr %25, i64 %27
  %29 = call i32 (ptr, ptr, ...) @sprintf(ptr noundef %28, ptr noundef @.str.20) #13
  %30 = load i32, ptr %9, align 4
  %31 = add nsw i32 %30, %29
  store i32 %31, ptr %9, align 4
  %32 = load ptr, ptr %8, align 8
  %33 = load i32, ptr %9, align 4
  %34 = sext i32 %33 to i64
  %35 = getelementptr inbounds i8, ptr %32, i64 %34
  %36 = call i32 (ptr, ptr, ...) @sprintf(ptr noundef %35, ptr noundef @.str.21) #13
  %37 = load i32, ptr %9, align 4
  %38 = add nsw i32 %37, %36
  store i32 %38, ptr %9, align 4
  %39 = load ptr, ptr %8, align 8
  %40 = load i32, ptr %9, align 4
  %41 = sext i32 %40 to i64
  %42 = getelementptr inbounds i8, ptr %39, i64 %41
  %43 = call i32 (ptr, ptr, ...) @sprintf(ptr noundef %42, ptr noundef @.str.20) #13
  %44 = load i32, ptr %9, align 4
  %45 = add nsw i32 %44, %43
  store i32 %45, ptr %9, align 4
  %46 = load ptr, ptr %8, align 8
  %47 = load i32, ptr %9, align 4
  %48 = sext i32 %47 to i64
  %49 = getelementptr inbounds i8, ptr %46, i64 %48
  %50 = call i32 (ptr, ptr, ...) @sprintf(ptr noundef %49, ptr noundef @.str.22) #13
  %51 = load i32, ptr %9, align 4
  %52 = add nsw i32 %51, %50
  store i32 %52, ptr %9, align 4
  %53 = load ptr, ptr %8, align 8
  %54 = load i32, ptr %9, align 4
  %55 = sext i32 %54 to i64
  %56 = getelementptr inbounds i8, ptr %53, i64 %55
  %57 = call i32 (ptr, ptr, ...) @sprintf(ptr noundef %56, ptr noundef @.str.23) #13
  %58 = load i32, ptr %9, align 4
  %59 = add nsw i32 %58, %57
  store i32 %59, ptr %9, align 4
  %60 = load ptr, ptr %8, align 8
  %61 = load i32, ptr %9, align 4
  %62 = sext i32 %61 to i64
  %63 = getelementptr inbounds i8, ptr %60, i64 %62
  %64 = call i32 (ptr, ptr, ...) @sprintf(ptr noundef %63, ptr noundef @.str.20) #13
  %65 = load i32, ptr %9, align 4
  %66 = add nsw i32 %65, %64
  store i32 %66, ptr %9, align 4
  %67 = load ptr, ptr %8, align 8
  %68 = load i32, ptr %9, align 4
  %69 = sext i32 %68 to i64
  %70 = getelementptr inbounds i8, ptr %67, i64 %69
  %71 = call i32 (ptr, ptr, ...) @sprintf(ptr noundef %70, ptr noundef @.str.24) #13
  %72 = load i32, ptr %9, align 4
  %73 = add nsw i32 %72, %71
  store i32 %73, ptr %9, align 4
  %74 = load ptr, ptr %8, align 8
  %75 = load i32, ptr %9, align 4
  %76 = sext i32 %75 to i64
  %77 = getelementptr inbounds i8, ptr %74, i64 %76
  %78 = call i32 (ptr, ptr, ...) @sprintf(ptr noundef %77, ptr noundef @.str.20) #13
  %79 = load i32, ptr %9, align 4
  %80 = add nsw i32 %79, %78
  store i32 %80, ptr %9, align 4
  %81 = load ptr, ptr %8, align 8
  %82 = load i32, ptr %9, align 4
  %83 = sext i32 %82 to i64
  %84 = getelementptr inbounds i8, ptr %81, i64 %83
  %85 = call i32 (ptr, ptr, ...) @sprintf(ptr noundef %84, ptr noundef @.str.25) #13
  %86 = load i32, ptr %9, align 4
  %87 = add nsw i32 %86, %85
  store i32 %87, ptr %9, align 4
  call void @llvm.lifetime.start.p0(i64 256, ptr %10) #13
  call void @llvm.memset.p0.i64(ptr align 16 %10, i8 0, i64 256, i1 false)
  %88 = getelementptr inbounds [256 x i8], ptr %10, i64 0, i64 0
  %89 = load ptr, ptr %6, align 8
  %90 = call ptr @GetFileNameWithoutExt(ptr noundef %89)
  %91 = call ptr @strcpy(ptr noundef %88, ptr noundef %90) #13
  call void @llvm.lifetime.start.p0(i64 4, ptr %11) #13
  store i32 0, ptr %11, align 4
  br label %92

92:                                               ; preds = %166, %3
  %93 = load i32, ptr %11, align 4
  %94 = sext i32 %93 to i64
  %95 = getelementptr inbounds [256 x i8], ptr %10, i64 0, i64 %94
  %96 = load i8, ptr %95, align 1
  %97 = sext i8 %96 to i32
  %98 = icmp ne i32 %97, 0
  br i1 %98, label %100, label %99

99:                                               ; preds = %92
  call void @llvm.lifetime.end.p0(i64 4, ptr %11) #13
  br label %169

100:                                              ; preds = %92
  %101 = load i32, ptr %11, align 4
  %102 = sext i32 %101 to i64
  %103 = getelementptr inbounds [256 x i8], ptr %10, i64 0, i64 %102
  %104 = load i8, ptr %103, align 1
  %105 = sext i8 %104 to i32
  %106 = icmp sge i32 %105, 97
  br i1 %106, label %107, label %125

107:                                              ; preds = %100
  %108 = load i32, ptr %11, align 4
  %109 = sext i32 %108 to i64
  %110 = getelementptr inbounds [256 x i8], ptr %10, i64 0, i64 %109
  %111 = load i8, ptr %110, align 1
  %112 = sext i8 %111 to i32
  %113 = icmp sle i32 %112, 122
  br i1 %113, label %114, label %125

114:                                              ; preds = %107
  %115 = load i32, ptr %11, align 4
  %116 = sext i32 %115 to i64
  %117 = getelementptr inbounds [256 x i8], ptr %10, i64 0, i64 %116
  %118 = load i8, ptr %117, align 1
  %119 = sext i8 %118 to i32
  %120 = sub nsw i32 %119, 32
  %121 = trunc i32 %120 to i8
  %122 = load i32, ptr %11, align 4
  %123 = sext i32 %122 to i64
  %124 = getelementptr inbounds [256 x i8], ptr %10, i64 0, i64 %123
  store i8 %121, ptr %124, align 1
  br label %165

125:                                              ; preds = %107, %100
  %126 = load i32, ptr %11, align 4
  %127 = sext i32 %126 to i64
  %128 = getelementptr inbounds [256 x i8], ptr %10, i64 0, i64 %127
  %129 = load i8, ptr %128, align 1
  %130 = sext i8 %129 to i32
  %131 = icmp eq i32 %130, 46
  br i1 %131, label %160, label %132

132:                                              ; preds = %125
  %133 = load i32, ptr %11, align 4
  %134 = sext i32 %133 to i64
  %135 = getelementptr inbounds [256 x i8], ptr %10, i64 0, i64 %134
  %136 = load i8, ptr %135, align 1
  %137 = sext i8 %136 to i32
  %138 = icmp eq i32 %137, 45
  br i1 %138, label %160, label %139

139:                                              ; preds = %132
  %140 = load i32, ptr %11, align 4
  %141 = sext i32 %140 to i64
  %142 = getelementptr inbounds [256 x i8], ptr %10, i64 0, i64 %141
  %143 = load i8, ptr %142, align 1
  %144 = sext i8 %143 to i32
  %145 = icmp eq i32 %144, 63
  br i1 %145, label %160, label %146

146:                                              ; preds = %139
  %147 = load i32, ptr %11, align 4
  %148 = sext i32 %147 to i64
  %149 = getelementptr inbounds [256 x i8], ptr %10, i64 0, i64 %148
  %150 = load i8, ptr %149, align 1
  %151 = sext i8 %150 to i32
  %152 = icmp eq i32 %151, 33
  br i1 %152, label %160, label %153

153:                                              ; preds = %146
  %154 = load i32, ptr %11, align 4
  %155 = sext i32 %154 to i64
  %156 = getelementptr inbounds [256 x i8], ptr %10, i64 0, i64 %155
  %157 = load i8, ptr %156, align 1
  %158 = sext i8 %157 to i32
  %159 = icmp eq i32 %158, 43
  br i1 %159, label %160, label %164

160:                                              ; preds = %153, %146, %139, %132, %125
  %161 = load i32, ptr %11, align 4
  %162 = sext i32 %161 to i64
  %163 = getelementptr inbounds [256 x i8], ptr %10, i64 0, i64 %162
  store i8 95, ptr %163, align 1
  br label %164

164:                                              ; preds = %160, %153
  br label %165

165:                                              ; preds = %164, %114
  br label %166

166:                                              ; preds = %165
  %167 = load i32, ptr %11, align 4
  %168 = add nsw i32 %167, 1
  store i32 %168, ptr %11, align 4
  br label %92

169:                                              ; preds = %99
  %170 = load ptr, ptr %8, align 8
  %171 = load i32, ptr %9, align 4
  %172 = sext i32 %171 to i64
  %173 = getelementptr inbounds i8, ptr %170, i64 %172
  %174 = getelementptr inbounds [256 x i8], ptr %10, i64 0, i64 0
  %175 = load i32, ptr %5, align 4
  %176 = call i32 (ptr, ptr, ...) @sprintf(ptr noundef %173, ptr noundef @.str.26, ptr noundef %174, i32 noundef %175) #13
  %177 = load i32, ptr %9, align 4
  %178 = add nsw i32 %177, %176
  store i32 %178, ptr %9, align 4
  %179 = load ptr, ptr %8, align 8
  %180 = load i32, ptr %9, align 4
  %181 = sext i32 %180 to i64
  %182 = getelementptr inbounds i8, ptr %179, i64 %181
  %183 = getelementptr inbounds [256 x i8], ptr %10, i64 0, i64 0
  %184 = getelementptr inbounds [256 x i8], ptr %10, i64 0, i64 0
  %185 = call i32 (ptr, ptr, ...) @sprintf(ptr noundef %182, ptr noundef @.str.27, ptr noundef %183, ptr noundef %184) #13
  %186 = load i32, ptr %9, align 4
  %187 = add nsw i32 %186, %185
  store i32 %187, ptr %9, align 4
  call void @llvm.lifetime.start.p0(i64 4, ptr %12) #13
  store i32 0, ptr %12, align 4
  br label %188

188:                                              ; preds = %212, %169
  %189 = load i32, ptr %12, align 4
  %190 = load i32, ptr %5, align 4
  %191 = sub nsw i32 %190, 1
  %192 = icmp slt i32 %189, %191
  br i1 %192, label %194, label %193

193:                                              ; preds = %188
  call void @llvm.lifetime.end.p0(i64 4, ptr %12) #13
  br label %215

194:                                              ; preds = %188
  %195 = load ptr, ptr %8, align 8
  %196 = load i32, ptr %9, align 4
  %197 = sext i32 %196 to i64
  %198 = getelementptr inbounds i8, ptr %195, i64 %197
  %199 = load i32, ptr %12, align 4
  %200 = srem i32 %199, 20
  %201 = icmp eq i32 %200, 0
  %202 = select i1 %201, ptr @.str.28, ptr @.str.29
  %203 = load ptr, ptr %4, align 8
  %204 = load i32, ptr %12, align 4
  %205 = sext i32 %204 to i64
  %206 = getelementptr inbounds i8, ptr %203, i64 %205
  %207 = load i8, ptr %206, align 1
  %208 = zext i8 %207 to i32
  %209 = call i32 (ptr, ptr, ...) @sprintf(ptr noundef %198, ptr noundef %202, i32 noundef %208) #13
  %210 = load i32, ptr %9, align 4
  %211 = add nsw i32 %210, %209
  store i32 %211, ptr %9, align 4
  br label %212

212:                                              ; preds = %194
  %213 = load i32, ptr %12, align 4
  %214 = add nsw i32 %213, 1
  store i32 %214, ptr %12, align 4
  br label %188

215:                                              ; preds = %193
  %216 = load ptr, ptr %8, align 8
  %217 = load i32, ptr %9, align 4
  %218 = sext i32 %217 to i64
  %219 = getelementptr inbounds i8, ptr %216, i64 %218
  %220 = load ptr, ptr %4, align 8
  %221 = load i32, ptr %5, align 4
  %222 = sub nsw i32 %221, 1
  %223 = sext i32 %222 to i64
  %224 = getelementptr inbounds i8, ptr %220, i64 %223
  %225 = load i8, ptr %224, align 1
  %226 = zext i8 %225 to i32
  %227 = call i32 (ptr, ptr, ...) @sprintf(ptr noundef %219, ptr noundef @.str.30, i32 noundef %226) #13
  %228 = load i32, ptr %9, align 4
  %229 = add nsw i32 %228, %227
  store i32 %229, ptr %9, align 4
  %230 = load ptr, ptr %6, align 8
  %231 = load ptr, ptr %8, align 8
  %232 = call zeroext i1 @SaveFileText(ptr noundef %230, ptr noundef %231)
  %233 = zext i1 %232 to i8
  store i8 %233, ptr %7, align 1
  %234 = load ptr, ptr %8, align 8
  call void @free(ptr noundef %234) #13
  %235 = load i8, ptr %7, align 1, !range !3, !noundef !4
  %236 = trunc i8 %235 to i1
  %237 = zext i1 %236 to i32
  %238 = icmp ne i32 %237, 0
  br i1 %238, label %239, label %241

239:                                              ; preds = %215
  %240 = load ptr, ptr %6, align 8
  call void (i32, ptr, ...) @TraceLog(i32 noundef 3, ptr noundef @.str.31, ptr noundef %240)
  br label %243

241:                                              ; preds = %215
  %242 = load ptr, ptr %6, align 8
  call void (i32, ptr, ...) @TraceLog(i32 noundef 4, ptr noundef @.str.32, ptr noundef %242)
  br label %243

243:                                              ; preds = %241, %239
  %244 = load i8, ptr %7, align 1, !range !3, !noundef !4
  %245 = trunc i8 %244 to i1
  call void @llvm.lifetime.end.p0(i64 256, ptr %10) #13
  call void @llvm.lifetime.end.p0(i64 4, ptr %9) #13
  call void @llvm.lifetime.end.p0(i64 8, ptr %8) #13
  call void @llvm.lifetime.end.p0(i64 1, ptr %7) #13
  ret i1 %245
}