; Function Attrs: nounwind uwtable
define noundef zeroext i1 @ExportDataAsCode(ptr noundef readonly captures(none) %0, i32 noundef %1, ptr noundef %2) local_unnamed_addr #1 {
  %4 = alloca [256 x i8], align 16
  %5 = mul nsw i32 %1, 6
  %6 = add nsw i32 %5, 2000
  %7 = sext i32 %6 to i64
  %8 = tail call noalias ptr @calloc(i64 noundef %7, i64 noundef 1) #21
  tail call void @llvm.memcpy.p0.p0.i64(ptr noundef nonnull align 1 dereferenceable(90) %8, ptr noundef nonnull align 1 dereferenceable(90) @.str.19, i64 89, i1 false)
  %9 = getelementptr inbounds nuw i8, ptr %8, i64 89
  tail call void @llvm.memcpy.p0.p0.i64(ptr noundef nonnull align 1 dereferenceable(90) %9, ptr noundef nonnull align 1 dereferenceable(90) @.str.20, i64 89, i1 false)
  %10 = getelementptr inbounds nuw i8, ptr %8, i64 178
  tail call void @llvm.memcpy.p0.p0.i64(ptr noundef nonnull align 1 dereferenceable(90) %10, ptr noundef nonnull align 1 dereferenceable(90) @.str.21, i64 89, i1 false)
  %11 = getelementptr inbounds nuw i8, ptr %8, i64 267
  tail call void @llvm.memcpy.p0.p0.i64(ptr noundef nonnull align 1 dereferenceable(90) %11, ptr noundef nonnull align 1 dereferenceable(90) @.str.20, i64 89, i1 false)
  %12 = getelementptr inbounds nuw i8, ptr %8, i64 356
  tail call void @llvm.memcpy.p0.p0.i64(ptr noundef nonnull align 1 dereferenceable(90) %12, ptr noundef nonnull align 1 dereferenceable(90) @.str.22, i64 89, i1 false)
  %13 = getelementptr inbounds nuw i8, ptr %8, i64 445
  tail call void @llvm.memcpy.p0.p0.i64(ptr noundef nonnull align 1 dereferenceable(90) %13, ptr noundef nonnull align 1 dereferenceable(90) @.str.23, i64 89, i1 false)
  %14 = getelementptr inbounds nuw i8, ptr %8, i64 534
  tail call void @llvm.memcpy.p0.p0.i64(ptr noundef nonnull align 1 dereferenceable(90) %14, ptr noundef nonnull align 1 dereferenceable(90) @.str.20, i64 89, i1 false)
  %15 = getelementptr inbounds nuw i8, ptr %8, i64 623
  tail call void @llvm.memcpy.p0.p0.i64(ptr noundef nonnull align 1 dereferenceable(90) %15, ptr noundef nonnull align 1 dereferenceable(90) @.str.24, i64 89, i1 false)
  %16 = getelementptr inbounds nuw i8, ptr %8, i64 712
  tail call void @llvm.memcpy.p0.p0.i64(ptr noundef nonnull align 1 dereferenceable(90) %16, ptr noundef nonnull align 1 dereferenceable(90) @.str.20, i64 89, i1 false)
  %17 = getelementptr inbounds nuw i8, ptr %8, i64 801
  tail call void @llvm.memcpy.p0.p0.i64(ptr noundef nonnull align 1 dereferenceable(91) %17, ptr noundef nonnull align 1 dereferenceable(91) @.str.25, i64 91, i1 false)
  call void @llvm.lifetime.start.p0(i64 256, ptr nonnull %4) #18
  call void @llvm.memset.p0.i64(ptr noundef nonnull align 16 dereferenceable(256) %4, i8 0, i64 256, i1 false)
  %18 = tail call ptr @GetFileNameWithoutExt(ptr noundef %2) #18
  %19 = call ptr @strcpy(ptr noundef nonnull dereferenceable(1) %4, ptr noundef nonnull dereferenceable(1) %18) #18
  %20 = load i8, ptr %4, align 16
  %.not76 = icmp eq i8 %20, 0
  br i1 %.not76, label %._crit_edge, label %.lr.ph

._crit_edge:                                      ; preds = %35, %3
  %21 = getelementptr inbounds nuw i8, ptr %8, i64 891
  %22 = call i32 (ptr, ptr, ...) @sprintf(ptr noundef nonnull dereferenceable(1) %21, ptr noundef nonnull dereferenceable(1) @.str.26, ptr noundef nonnull %4, i32 noundef %1) #18
  %23 = add nsw i32 %22, 891
  %24 = sext i32 %23 to i64
  %25 = getelementptr inbounds i8, ptr %8, i64 %24
  %26 = call i32 (ptr, ptr, ...) @sprintf(ptr noundef nonnull dereferenceable(1) %25, ptr noundef nonnull dereferenceable(1) @.str.27, ptr noundef nonnull %4, ptr noundef nonnull %4) #18
  %27 = add nsw i32 %23, %26
  %28 = add i32 %1, -1
  %29 = icmp sgt i32 %1, 1
  br i1 %29, label %.lr.ph81.preheader, label %._crit_edge82

.lr.ph81.preheader:                               ; preds = %._crit_edge
  %wide.trip.count = zext nneg i32 %28 to i64
  br label %.lr.ph81

.lr.ph:                                           ; preds = %3, %35
  %indvars.iv = phi i64 [ %indvars.iv.next, %35 ], [ 0, %3 ]
  %30 = phi i8 [ %37, %35 ], [ %20, %3 ]
  %31 = phi ptr [ %36, %35 ], [ %4, %3 ]
  %32 = add i8 %30, -97
  %or.cond = icmp ult i8 %32, 26
  br i1 %or.cond, label %33, label %34

33:                                               ; preds = %.lr.ph
  %narrow = add nsw i8 %30, -32
  br label %.sink.split

34:                                               ; preds = %.lr.ph
  switch i8 %30, label %35 [
    i8 46, label %.sink.split
    i8 45, label %.sink.split
    i8 63, label %.sink.split
    i8 33, label %.sink.split
    i8 43, label %.sink.split
  ]

.sink.split:                                      ; preds = %34, %34, %34, %34, %34, %33
  %narrow.sink = phi i8 [ %narrow, %33 ], [ 95, %34 ], [ 95, %34 ], [ 95, %34 ], [ 95, %34 ], [ 95, %34 ]
  store i8 %narrow.sink, ptr %31, align 1
  br label %35

35:                                               ; preds = %.sink.split, %34
  %indvars.iv.next = add nuw nsw i64 %indvars.iv, 1
  %36 = getelementptr inbounds nuw [256 x i8], ptr %4, i64 0, i64 %indvars.iv.next
  %37 = load i8, ptr %36, align 1
  %.not = icmp eq i8 %37, 0
  br i1 %.not, label %._crit_edge, label %.lr.ph

._crit_edge82:                                    ; preds = %.lr.ph81, %._crit_edge
  %.072.lcssa = phi i32 [ %27, %._crit_edge ], [ %56, %.lr.ph81 ]
  %38 = sext i32 %.072.lcssa to i64
  %39 = getelementptr inbounds i8, ptr %8, i64 %38
  %40 = sext i32 %28 to i64
  %41 = getelementptr inbounds i8, ptr %0, i64 %40
  %42 = load i8, ptr %41, align 1
  %43 = zext i8 %42 to i32
  %44 = call i32 (ptr, ptr, ...) @sprintf(ptr noundef nonnull dereferenceable(1) %39, ptr noundef nonnull dereferenceable(1) @.str.30, i32 noundef %43) #18
  %45 = call zeroext i1 @SaveFileText(ptr noundef %2, ptr noundef nonnull %8)
  call void @free(ptr noundef nonnull %8) #18
  br i1 %45, label %57, label %58

.lr.ph81:                                         ; preds = %.lr.ph81.preheader, %.lr.ph81
  %indvars.iv84 = phi i64 [ 0, %.lr.ph81.preheader ], [ %indvars.iv.next85, %.lr.ph81 ]
  %.07278 = phi i32 [ %27, %.lr.ph81.preheader ], [ %56, %.lr.ph81 ]
  %46 = sext i32 %.07278 to i64
  %47 = getelementptr inbounds i8, ptr %8, i64 %46
  %48 = trunc nuw nsw i64 %indvars.iv84 to i32
  %49 = urem i32 %48, 20
  %50 = icmp eq i32 %49, 0
  %51 = select i1 %50, ptr @.str.28, ptr @.str.29
  %52 = getelementptr inbounds nuw i8, ptr %0, i64 %indvars.iv84
  %53 = load i8, ptr %52, align 1
  %54 = zext i8 %53 to i32
  %55 = call i32 (ptr, ptr, ...) @sprintf(ptr noundef nonnull dereferenceable(1) %47, ptr noundef nonnull dereferenceable(1) %51, i32 noundef %54) #18
  %56 = add nsw i32 %55, %.07278
  %indvars.iv.next85 = add nuw nsw i64 %indvars.iv84, 1
  %exitcond.not = icmp eq i64 %indvars.iv.next85, %wide.trip.count
  br i1 %exitcond.not, label %._crit_edge82, label %.lr.ph81

57:                                               ; preds = %._crit_edge82
  call void (i32, ptr, ...) @TraceLog(i32 noundef 3, ptr noundef nonnull @.str.31, ptr noundef %2)
  br label %59

58:                                               ; preds = %._crit_edge82
  call void (i32, ptr, ...) @TraceLog(i32 noundef 4, ptr noundef nonnull @.str.32, ptr noundef %2)
  br label %59

59:                                               ; preds = %58, %57
  call void @llvm.lifetime.end.p0(i64 256, ptr nonnull %4) #18
  ret i1 %45
}